; Function Attrs: mustprogress uwtable
define hidden void @_ZN12substitution11reset_cacheEv(ptr nocapture noundef nonnull align 8 dereferenceable(124) %this) local_unnamed_addr #5 align 2 {
entry:
  %m_timestamp.i = getelementptr inbounds i8, ptr %this, i64 80
  %0 = load i32, ptr %m_timestamp.i, align 8
  %inc.i = add i32 %0, 1
  store i32 %inc.i, ptr %m_timestamp.i, align 8
  %cmp.i = icmp eq i32 %inc.i, -1
  br i1 %cmp.i, label %if.then.i, label %_ZN15expr_offset_mapIP4exprE5resetEv.exit

if.then.i:                                        ; preds = %entry
  %m_apply_cache = getelementptr inbounds i8, ptr %this, i64 72
  %1 = load ptr, ptr %m_apply_cache, align 8
  %cmp.i.i.i = icmp eq ptr %1, null
  br i1 %cmp.i.i.i, label %for.end14.i, label %_ZN6vectorI7svectorIN15expr_offset_mapIP4exprE4dataEjELb1EjE3endEv.exit.i

_ZN6vectorI7svectorIN15expr_offset_mapIP4exprE4dataEjELb1EjE3endEv.exit.i: ; preds = %if.then.i
  %arrayidx.i.i.i = getelementptr inbounds i8, ptr %1, i64 -4
  %2 = load i32, ptr %arrayidx.i.i.i, align 4
  %3 = zext i32 %2 to i64
  %add.ptr.i.i = getelementptr inbounds %class.svector.52, ptr %1, i64 %3
  %cmp5.not13.i = icmp eq i32 %2, 0
  br i1 %cmp5.not13.i, label %for.end14.i, label %for.body.i

for.body.i:                                       ; preds = %_ZN6vectorI7svectorIN15expr_offset_mapIP4exprE4dataEjELb1EjE3endEv.exit.i, %for.inc12.i
  %it.014.i = phi ptr [ %incdec.ptr13.i, %for.inc12.i ], [ %1, %_ZN6vectorI7svectorIN15expr_offset_mapIP4exprE4dataEjELb1EjE3endEv.exit.i ]
  %4 = load ptr, ptr %it.014.i, align 8
  %cmp.i.i6.i = icmp eq ptr %4, null
  br i1 %cmp.i.i6.i, label %for.inc12.i, label %_ZN6vectorIN15expr_offset_mapIP4exprE4dataELb0EjE3endEv.exit.i

_ZN6vectorIN15expr_offset_mapIP4exprE4dataELb0EjE3endEv.exit.i: ; preds = %for.body.i
  %arrayidx.i.i8.i = getelementptr inbounds i8, ptr %4, i64 -4
  %5 = load i32, ptr %arrayidx.i.i8.i, align 4
  %6 = zext i32 %5 to i64
  %add.ptr.i10.i = getelementptr inbounds %"struct.expr_offset_map<expr *>::data", ptr %4, i64 %6
  %cmp9.not11.i = icmp eq i32 %5, 0
  br i1 %cmp9.not11.i, label %for.inc12.i, label %for.body10.i

for.body10.i:                                     ; preds = %_ZN6vectorIN15expr_offset_mapIP4exprE4dataELb0EjE3endEv.exit.i, %for.body10.i
  %it2.012.i = phi ptr [ %incdec.ptr.i, %for.body10.i ], [ %4, %_ZN6vectorIN15expr_offset_mapIP4exprE4dataELb0EjE3endEv.exit.i ]
  %m_timestamp11.i = getelementptr inbounds i8, ptr %it2.012.i, i64 8
  store i32 0, ptr %m_timestamp11.i, align 8
  %incdec.ptr.i = getelementptr inbounds i8, ptr %it2.012.i, i64 16
  %cmp9.not.i = icmp eq ptr %incdec.ptr.i, %add.ptr.i10.i
  br i1 %cmp9.not.i, label %for.inc12.i, label %for.body10.i, !llvm.loop !7

for.inc12.i:                                      ; preds = %for.body10.i, %_ZN6vectorIN15expr_offset_mapIP4exprE4dataELb0EjE3endEv.exit.i, %for.body.i
  %incdec.ptr13.i = getelementptr inbounds i8, ptr %it.014.i, i64 8
  %cmp5.not.i = icmp eq ptr %incdec.ptr13.i, %add.ptr.i.i
  br i1 %cmp5.not.i, label %for.end14.i, label %for.body.i, !llvm.loop !8

for.end14.i:                                      ; preds = %for.inc12.i, %_ZN6vectorI7svectorIN15expr_offset_mapIP4exprE4dataEjELb1EjE3endEv.exit.i, %if.then.i
  store i32 1, ptr %m_timestamp.i, align 8
  br label %_ZN15expr_offset_mapIP4exprE5resetEv.exit

_ZN15expr_offset_mapIP4exprE5resetEv.exit:        ; preds = %entry, %for.end14.i
  %m_new_exprs = getelementptr inbounds i8, ptr %this, i64 88
  %m_nodes.i = getelementptr inbounds i8, ptr %this, i64 96
  %7 = load ptr, ptr %m_nodes.i, align 8
  %cmp.i.i = icmp eq ptr %7, null
  br i1 %cmp.i.i, label %_ZN15ref_vector_coreI4expr19ref_manager_wrapperIS0_11ast_managerEE5resetEv.exit, label %_ZNK6vectorIP4exprLb0EjE4sizeEv.exit.i

_ZNK6vectorIP4exprLb0EjE4sizeEv.exit.i:           ; preds = %_ZN15expr_offset_mapIP4exprE5resetEv.exit
  %arrayidx.i.i = getelementptr inbounds i8, ptr %7, i64 -4
  %8 = load i32, ptr %arrayidx.i.i, align 4
  %9 = zext i32 %8 to i64
  %add.ptr.i = getelementptr inbounds ptr, ptr %7, i64 %9
  %cmp3.i.not.i = icmp eq i32 %8, 0
  br i1 %cmp3.i.not.i, label %if.then.i.i, label %for.body.i.i

for.body.i.i:                                     ; preds = %_ZNK6vectorIP4exprLb0EjE4sizeEv.exit.i, %_ZN15ref_vector_coreI4expr19ref_manager_wrapperIS0_11ast_managerEE7dec_refEPS0_.exit.i.i
  %it.04.i.i = phi ptr [ %incdec.ptr.i.i, %_ZN15ref_vector_coreI4expr19ref_manager_wrapperIS0_11ast_managerEE7dec_refEPS0_.exit.i.i ], [ %7, %_ZNK6vectorIP4exprLb0EjE4sizeEv.exit.i ]
  %10 = load ptr, ptr %it.04.i.i, align 8
  %11 = load ptr, ptr %m_new_exprs, align 8
  %tobool.not.i.i.i.i.i = icmp eq ptr %10, null
  br i1 %tobool.not.i.i.i.i.i, label %_ZN15ref_vector_coreI4expr19ref_manager_wrapperIS0_11ast_managerEE7dec_refEPS0_.exit.i.i, label %if.then.i.i.i.i.i

if.then.i.i.i.i.i:                                ; preds = %for.body.i.i
  %m_ref_count.i.i.i.i.i.i = getelementptr inbounds i8, ptr %10, i64 8
  %12 = load i32, ptr %m_ref_count.i.i.i.i.i.i, align 4
  %dec.i.i.i.i.i.i = add i32 %12, -1
  store i32 %dec.i.i.i.i.i.i, ptr %m_ref_count.i.i.i.i.i.i, align 4
  %cmp.i.i.i.i.i = icmp eq i32 %dec.i.i.i.i.i.i, 0
  br i1 %cmp.i.i.i.i.i, label %if.then2.i.i.i.i.i, label %_ZN15ref_vector_coreI4expr19ref_manager_wrapperIS0_11ast_managerEE7dec_refEPS0_.exit.i.i

if.then2.i.i.i.i.i:                               ; preds = %if.then.i.i.i.i.i
  tail call void @_ZN11ast_manager11delete_nodeEP3ast(ptr noundef nonnull align 8 dereferenceable(976) %11, ptr noundef nonnull %10)
  br label %_ZN15ref_vector_coreI4expr19ref_manager_wrapperIS0_11ast_managerEE7dec_refEPS0_.exit.i.i

_ZN15ref_vector_coreI4expr19ref_manager_wrapperIS0_11ast_managerEE7dec_refEPS0_.exit.i.i: ; preds = %if.then2.i.i.i.i.i, %if.then.i.i.i.i.i, %for.body.i.i
  %incdec.ptr.i.i = getelementptr inbounds i8, ptr %it.04.i.i, i64 8
  %cmp.i1.i = icmp ult ptr %incdec.ptr.i.i, %add.ptr.i
  br i1 %cmp.i1.i, label %for.body.i.i, label %_ZN15ref_vector_coreI4expr19ref_manager_wrapperIS0_11ast_managerEE13dec_range_refEPKPS0_S7_.exit.i, !llvm.loop !4

_ZN15ref_vector_coreI4expr19ref_manager_wrapperIS0_11ast_managerEE13dec_range_refEPKPS0_S7_.exit.i: ; preds = %_ZN15ref_vector_coreI4expr19ref_manager_wrapperIS0_11ast_managerEE7dec_refEPS0_.exit.i.i
  %.pre.i = load ptr, ptr %m_nodes.i, align 8
  %tobool.not.i.i = icmp eq ptr %.pre.i, null
  br i1 %tobool.not.i.i, label %_ZN15ref_vector_coreI4expr19ref_manager_wrapperIS0_11ast_managerEE5resetEv.exit, label %if.then.i.i

if.then.i.i:                                      ; preds = %_ZN15ref_vector_coreI4expr19ref_manager_wrapperIS0_11ast_managerEE13dec_range_refEPKPS0_S7_.exit.i, %_ZNK6vectorIP4exprLb0EjE4sizeEv.exit.i
  %13 = phi ptr [ %.pre.i, %_ZN15ref_vector_coreI4expr19ref_manager_wrapperIS0_11ast_managerEE13dec_range_refEPKPS0_S7_.exit.i ], [ %7, %_ZNK6vectorIP4exprLb0EjE4sizeEv.exit.i ]
  %arrayidx.i2.i = getelementptr inbounds i8, ptr %13, i64 -4
  store i32 0, ptr %arrayidx.i2.i, align 4
  br label %_ZN15ref_vector_coreI4expr19ref_manager_wrapperIS0_11ast_managerEE5resetEv.exit

_ZN15ref_vector_coreI4expr19ref_manager_wrapperIS0_11ast_managerEE5resetEv.exit: ; preds = %_ZN15expr_offset_mapIP4exprE5resetEv.exit, %_ZN15ref_vector_coreI4expr19ref_manager_wrapperIS0_11ast_managerEE13dec_range_refEPKPS0_S7_.exit.i, %if.then.i.i
  %m_state = getelementptr inbounds i8, ptr %this, i64 120
  store i32 0, ptr %m_state, align 8
  ret void
}